(dp1
S'33420113'
p2
(F-2
F-1.3
F25.5
tp3
sS'33067418'
p4
(F0
F0
F24
tp5
sS'32274043'
p6
(F-2
F0
F28
tp7
sS'34921662'
p8
(F-2
F-1.3
F31
tp9
sS'36072721'
p10
(F-4.5
F-5.5
F27.5
tp11
sS'33410251'
p12
(F-2
F0
F25
tp13
sS'32532145'
p14
(F-2
F-1.3200000000000001
F16.059999999999999
tp15
sS'34924599'
p16
(F-2
F-1.3
F22.5
tp17
sS'33159892'
p18
(F0
F0
F28
tp19
sS'34906993'
p20
(F-2
F-1.3
F27.5
tp21
sS'32266194'
p22
(F0
F-1.3200000000000001
F26.5
tp23
sS'33148130'
p24
(F0
F-0
F22
tp25
sS'36078572'
p26
(F-3.25
F-3.3999999999999999
F27.5
tp27
sS'33258424'
p28
(F0
F1.3200000000000001
F28.5
tp29
sS'46863470'
p30
(F0
F0
F26
tp31
sS'32258346'
p32
(F0
F1.5
F26.670000000000002
tp33
sS'47066618'
p34
(F-2
F-1.3
F22
tp35
sS'32522788'
p36
(F-2
F-1.3200000000000001
F22.059999999999999
tp37
sS'32262269'
p38
(F0
F0.93999999999999995
F29.059999999999999
tp39
sS'33071339'
p40
(F0
F-0
F26
tp41
sS'47075404'
p42
(F-2
F-1.3
F28
tp43
sS'33402859'
p44
(F0
F-1.3
F23.5
tp45
sS'46873024'
p46
(F0
F0
F30
tp47
sS'34915791'
p48
(F-2
F-5.5
F27.5
tp49
sS'33422576'
p50
(F-2
F-1.3
F27.5
tp51
sS'47047195'
p52
(I-2
F-5.5
F28.800000000000001
tp53
sS'33395462'
p54
(F0
F0
F25
tp55
sS'46853916'
p56
(F0
F0
F22
tp57
sS'33405321'
p58
(F0
F-1.3
F25.5
tp59
sS'47053068'
p60
(F-2
F-1.3
F31
tp61
sS'33152051'
p62
(F0
F0
F24
tp63
sS'35406843'
p64
(F-4.5
F-3.3999999999999999
F27.5
tp65
sS'35994914'
p66
(F-3.25
F-5.5
F27.5
tp67
sS'32383346'
p68
(F-2
F-1.3300000000000001
F28.059999999999999
tp69
sS'33415176'
p70
(F-2
F0
F29
tp71
sS'32527467'
p72
(F-2
F-1.3300000000000001
F19.07
tp73
sS'47078333'
p74
(F-2
F-1.3
F30
tp75
sS'35989066'
p76
(F-4.5
F-3.3999999999999999
F27.5
tp77
sS'32117935'
p78
(F0
F-1.5
F29.32
tp79
sS'33059576'
p80
(F0
F0.01
F20
tp81
sS'47072474'
p82
(F-2
F-1.3
F26
tp83
sS'47069547'
p84
(F-2
F-1.3
F24
tp85
sS'47038378'
p86
(F-2
F-1.3
F28.800000000000001
tp87
sS'33417650'
p88
(F-2
F-1.3
F23.5
tp89
sS'34912858'
p90
(F3
F-1.3
F27.5
tp91
sS'33407784'
p92
(F0
F-1.3
F27.5
tp93
sS'35409767'
p94
(F-4.5
F-5.5
F27.5
tp95
sS'35412693'
p96
(F-3.25
F-5.5
F27.5
tp97
sS'34909918'
p98
(F-4.5
F-1.3
F27.5
tp99
sS'47041310'
p100
(F-4.5
F-1.3
F28.800000000000001
tp101
sS'46858693'
p102
(F0
F0
F24
tp103
sS'46849140'
p104
(F0
F0
F20
tp105
sS'34918728'
p106
(F-2
F2.7000000000000002
F27.5
tp107
sS'36075647'
p108
(F-3.25
F-5.5
F27.5
tp109
sS'33397925'
p110
(F0
F0
F27
tp111
sS'32254417'
p112
(F0
F-1.5
F29.32
tp113
sS'32618104'
p114
(F-2
F-1.3300000000000001
F25.059999999999999
tp115
sS'47063688'
p116
(F-2
F-1.3
F20
tp117
sS'33263201'
p118
(F0
F-1.3
F25.5
tp119
sS'33155972'
p120
(F0
F-0
F26
tp121
sS'47044257'
p122
(F3
F-1.3
F28.800000000000001
tp123
sS'46868247'
p124
(F0
F0
F28
tp125
sS'35418541'
p126
(I-2
F-3.3999999999999999
F27.5
tp127
sS'33400386'
p128
(F0
F0
F29
tp129
sS'33412714'
p130
(F-2
F0
F27
tp131
sS'32378665'
p132
(F-2
F-1.3200000000000001
F31.059999999999999
tp133
sS'47050133'
p134
(F-2
F1
F28.800000000000001
tp135
sS'35415617'
p136
(F-3.25
F-3.3999999999999999
F27.5
tp137
sS'32270115'
p138
(F2
F0
F28
tp139
sS'33248876'
p140
(F0
F-1.5
F28.300000000000001
tp141
sS'47056008'
p142
(F-2
F-1.3
F23.800000000000001
tp143
sS'32250496'
p144
(F0
F0
F28
tp145
sS'33253653'
p146
(F0
F1.5
F25.670000000000002
tp147
s.