(dp1
S'33067418'
p2
(F32.705750000000002
F-51.038870000000003
tp3
sS'32274043'
p4
(F84.744810000000001
F-44.100999999999999
tp5
sS'34921662'
p6
(F32.732224416898383
F-50.998860777612904
tp7
sS'36072721'
p8
(F32.753388901964954
F-50.982188285848899
tp9
sS'32532145'
p10
(F84.740160000000003
F-44.077660000000002
tp11
sS'34924599'
p12
(F32.732227271704012
F-51.002193909927868
tp13
sS'47050133'
p14
(F32.721649999999997
F-51.025530000000003
tp15
sS'33159892'
p16
(F32.695149999999998
F-51.035530000000001
tp17
sS'34906993'
p18
(F32.737533951828091
F-51.012189891778185
tp19
sS'32266194'
p20
(F84.71696
F-44.081000000000003
tp21
sS'33148130'
p22
(F32.71105
F-51.035530000000001
tp23
sS'36078572'
p24
(F32.74281397487109
F-50.995524230203351
tp25
sS'33258424'
p26
(F32.673949999999998
F-51.028860000000002
tp27
sS'46863470'
p28
(F32.700449999999996
F-51.022199999999998
tp29
sS'32258346'
p30
(F84.707679999999996
F-44.097670000000001
tp31
sS'47066618'
p32
(F32.732230000000001
F-51.008859999999999
tp33
sS'32522788'
p34
(F84.730879999999999
F-44.064329999999998
tp35
sS'32262269'
p36
(F84.707679999999996
F-44.091000000000001
tp37
sS'33071339'
p38
(F32.700449999999996
F-51.038870000000003
tp39
sS'47075404'
p40
(F32.748130000000003
F-51.015520000000002
tp41
sS'46873024'
p42
(F32.68985
F-51.015540000000001
tp43
sS'34915791'
p44
(F32.737495148482878
F-50.972199134187754
tp45
sS'33422576'
p46
(F32.705748136569731
F-51.02220294910142
tp47
sS'36069797'
p48
(F32.199700303918846
F-51.267837042222588
tp49
sS'35412693'
p50
(F32.726905590510164
F-50.968869416967372
tp51
sS'33395462'
p52
(F32.726947632192136
F-51.025529251227219
tp53
sS'46853916'
p54
(F32.705750000000002
F-51.025539999999999
tp55
sS'33405321'
p56
(F32.716344932441878
F-51.018862986597284
tp57
sS'33152051'
p58
(F32.705750000000002
F-51.038870000000003
tp59
sS'35406843'
p60
(F32.742799524085122
F-50.982188285848899
tp61
sS'33059576'
p62
(F32.716360000000002
F-51.042189999999998
tp63
sS'35994914'
p64
(F32.354000974056476
F-51.295048515875919
tp65
sS'35991990'
p66
(F33.219388903424424
F-50.987683173036174
tp67
sS'32383346'
p68
(F84.749470000000002
F-44.121000000000002
tp69
sS'36000763'
p70
(F33.222016071655645
F-51.217676132958012
tp71
sS'32527467'
p72
(F84.735519999999994
F-44.067659999999997
tp73
sS'47072474'
p74
(F32.742829999999998
F-51.012189999999997
tp75
sS'32378665'
p76
(F84.749459999999999
F-44.114319999999999
tp77
sS'35989066'
p78
(F32.758702595706126
F-50.995513984919597
tp79
sS'32117935'
p80
(F84.740170000000006
F-44.097659999999998
tp81
sS'33415176'
p82
(F32.721654282276127
F-51.035528648172118
tp83
sS'35997839'
p84
(F32.880474529942205
F-50.985384814380467
tp85
sS'47069547'
p86
(F32.73753
F-51.012189999999997
tp87
sS'47038378'
p88
(F32.732239999999997
F-51.018859999999997
tp89
sS'33417650'
p90
(F32.716348360876673
F-51.025529251227219
tp91
sS'33253653'
p92
(F32.679250000000003
F-51.038870000000003
tp93
sS'36075647'
p94
(F32.737504836812732
F-50.982195116038071
tp95
sS'33412714'
p96
(F32.726952588081353
F-51.032192100762565
tp97
sS'33407784'
p98
(F32.716344932441878
F-51.018862986597284
tp99
sS'33410251'
p100
(F32.732252981629948
F-51.032192100762565
tp101
sS'33420113'
p102
(F32.705749088727451
F-51.025536081416384
tp103
sS'34909918'
p104
(F32.764014201703937
F-51.005509966769907
tp105
sS'47041310'
p106
(F32.758740000000003
F-51.01885
tp107
sS'33397925'
p108
(F32.726947632192136
F-51.025529251227219
tp109
sS'47078333'
p110
(F32.748130000000003
F-51.015520000000002
tp111
sS'34918728'
p112
(F32.732247265348576
F-51.02552583613263
tp113
sS'46868247'
p114
(F32.695149999999998
F-51.01887
tp115
sS'32254417'
p116
(F84.703040000000001
F-44.074330000000003
tp117
sS'32618104'
p118
(F84.749440000000007
F-44.084330000000001
tp119
sS'47063688'
p120
(F32.732230000000001
F-51.008859999999999
tp121
sS'46858693'
p122
(F32.700449999999996
F-51.022199999999998
tp123
sS'33263201'
p124
(F32.259055715023315
F-51.18806726290601
tp125
sS'33155972'
p126
(F32.700449999999996
F-51.038870000000003
tp127
sS'47044257'
p128
(F32.673960000000001
F-51.0122
tp129
sS'47053068'
p130
(F32.721640000000001
F-51.00553
tp131
sS'34912858'
p132
(F32.684554544825438
F-51.00220074011704
tp133
sS'35418541'
p134
(F32.716327801940572
F-50.985535078542206
tp135
sS'33400386'
p136
(F32.726947632192136
F-51.025529251227219
tp137
sS'46849140'
p138
(F32.705750000000002
F-51.032200000000003
tp139
sS'35409767'
p140
(F32.742785086639358
F-50.968859171683619
tp141
sS'47047195'
p142
(F32.721620000000001
F-50.988869999999999
tp143
sS'35415617'
p144
(F32.72691546893806
F-50.982198531132653
tp145
sS'32270115'
p146
(F84.703040000000001
F-44.097670000000001
tp147
sS'33248876'
p148
(F32.161869967179413
F-51.314336970092036
tp149
sS'47056008'
p150
(F32.726939999999999
F-51.008859999999999
tp151
sS'32250496'
p152
(F84.698400000000007
F-44.087670000000003
tp153
sS'33402859'
p154
(F32.721643806873693
F-51.018862986597284
tp155
s.